target datalayout = "e-m:e-p270:32:32-p271:32:32-p272:64:64-i64:64-i128:128-f80:128-n8:16:32:64-S128"
target triple = "x86_64-pc-linux-gnu"

%struct.pmix_class_t = type { ptr, ptr, ptr, ptr, i32, i32, ptr, ptr, i64 }
%struct.pmix_object_t = type { %union.pthread_mutex_t, ptr, i32, %struct.pmix_tma }
%struct.pmix_tma = type { ptr, ptr, ptr, ptr, ptr, ptr, ptr, ptr }
%union.pthread_mutex_t = type { %struct.__pthread_mutex_s }
%struct.__pthread_mutex_s = type { i32, i32, i32, i32, i32, i16, i16, %struct.__pthread_internal_list }
%struct.__pthread_internal_list = type { ptr, ptr }

@.str.37 = private unnamed_addr constant [21 x i8] c"pthread_mutex_lock()\00", align 1

; Function Attrs: inlinehint nounwind uwtable
define internal void @pmix_tma_free(ptr noundef %0, ptr noundef %1) #2 {
  %3 = alloca ptr, align 8
  %4 = alloca ptr, align 8
  store ptr %0, ptr %3, align 8, !tbaa !98
  store ptr %1, ptr %4, align 8, !tbaa !3
  %5 = load ptr, ptr %3, align 8, !tbaa !98
  %6 = icmp ne ptr null, %5
  br i1 %6, label %7, label %13

7:                                                ; preds = %2
  %8 = load ptr, ptr %3, align 8, !tbaa !98
  %9 = getelementptr inbounds nuw %struct.pmix_tma, ptr %8, i32 0, i32 5
  %10 = load ptr, ptr %9, align 8, !tbaa !157
  %11 = load ptr, ptr %3, align 8, !tbaa !98
  %12 = load ptr, ptr %4, align 8, !tbaa !3
  call void %10(ptr noundef %11, ptr noundef %12)
  br label %15

13:                                               ; preds = %2
  %14 = load ptr, ptr %4, align 8, !tbaa !3
  call void @free(ptr noundef %14) #11
  br label %15

15:                                               ; preds = %13, %7
  ret void
}

; Function Attrs: inlinehint nounwind uwtable
define internal void @pmix_obj_run_destructors(ptr noundef %0) #2 {
  %2 = alloca ptr, align 8
  %3 = alloca ptr, align 8
  store ptr %0, ptr %2, align 8, !tbaa !87
  call void @llvm.lifetime.start.p0(i64 8, ptr %3) #11
  %4 = load ptr, ptr %2, align 8, !tbaa !87
  %5 = getelementptr inbounds nuw %struct.pmix_object_t, ptr %4, i32 0, i32 1
  %6 = load ptr, ptr %5, align 8, !tbaa !14
  %7 = getelementptr inbounds nuw %struct.pmix_class_t, ptr %6, i32 0, i32 7
  %8 = load ptr, ptr %7, align 8, !tbaa !155
  store ptr %8, ptr %3, align 8, !tbaa !3
  br label %9

9:                                                ; preds = %13, %1
  %10 = load ptr, ptr %3, align 8, !tbaa !3
  %11 = load ptr, ptr %10, align 8, !tbaa !3
  %12 = icmp ne ptr null, %11
  br i1 %12, label %13, label %19

13:                                               ; preds = %9
  %14 = load ptr, ptr %3, align 8, !tbaa !3
  %15 = load ptr, ptr %14, align 8, !tbaa !3
  %16 = load ptr, ptr %2, align 8, !tbaa !87
  call void %15(ptr noundef %16)
  %17 = load ptr, ptr %3, align 8, !tbaa !3
  %18 = getelementptr inbounds nuw ptr, ptr %17, i32 1
  store ptr %18, ptr %3, align 8, !tbaa !3
  br label %9, !llvm.loop !156

19:                                               ; preds = %9
  call void @llvm.lifetime.end.p0(i64 8, ptr %3) #11
  ret void
}

; Function Attrs: alwaysinline nounwind uwtable
define internal i32 @pmix_obj_update(ptr noundef %0, i32 noundef %1) #5 {
  %3 = alloca ptr, align 8
  %4 = alloca i32, align 4
  %5 = alloca i32, align 4
  store ptr %0, ptr %3, align 8, !tbaa !87
  store i32 %1, ptr %4, align 4, !tbaa !7
  call void @llvm.lifetime.start.p0(i64 4, ptr %5) #11
  %6 = load ptr, ptr %3, align 8, !tbaa !87
  %7 = getelementptr inbounds nuw %struct.pmix_object_t, ptr %6, i32 0, i32 0
  %8 = call i32 @pthread_mutex_lock(ptr noundef %7) #11
  store i32 %8, ptr %5, align 4, !tbaa !7
  %9 = load i32, ptr %5, align 4, !tbaa !7
  %10 = icmp eq i32 %9, 35
  br i1 %10, label %11, label %14

11:                                               ; preds = %2
  %12 = load i32, ptr %5, align 4, !tbaa !7
  %13 = call ptr @__errno_location() #13
  store i32 %12, ptr %13, align 4, !tbaa !7
  call void @perror(ptr noundef @.str.37)
  call void @abort() #14
  unreachable

14:                                               ; preds = %2
  %15 = load i32, ptr %4, align 4, !tbaa !7
  %16 = load ptr, ptr %3, align 8, !tbaa !87
  %17 = getelementptr inbounds nuw %struct.pmix_object_t, ptr %16, i32 0, i32 2
  %18 = load i32, ptr %17, align 8, !tbaa !17
  %19 = add nsw i32 %18, %15
  store i32 %19, ptr %17, align 8, !tbaa !17
  store i32 %19, ptr %5, align 4, !tbaa !7
  %20 = load ptr, ptr %3, align 8, !tbaa !87
  %21 = getelementptr inbounds nuw %struct.pmix_object_t, ptr %20, i32 0, i32 0
  %22 = call i32 @pthread_mutex_unlock(ptr noundef %21) #11
  %23 = load i32, ptr %5, align 4, !tbaa !7
  call void @llvm.lifetime.end.p0(i64 4, ptr %5) #11
  ret i32 %23
}

; Function Attrs: nounwind uwtable
define internal void @chaincbfunc(i32 noundef %0, ptr noundef %1) #0 {
  %3 = alloca i32, align 4
  %4 = alloca ptr, align 8
  %5 = alloca ptr, align 8
  %6 = alloca ptr, align 8
  store i32 %0, ptr %3, align 4, !tbaa !7
  store ptr %1, ptr %4, align 8, !tbaa !3
  call void @llvm.lifetime.start.p0(i64 8, ptr %5) #11
  %7 = load ptr, ptr %4, align 8, !tbaa !3
  store ptr %7, ptr %5, align 8, !tbaa !3
  %8 = load ptr, ptr %5, align 8, !tbaa !3
  %9 = icmp ne ptr null, %8
  br i1 %9, label %10, label %33

10:                                               ; preds = %2
  br label %11

11:                                               ; preds = %10
  call void @llvm.lifetime.start.p0(i64 8, ptr %6) #11
  %12 = load ptr, ptr %5, align 8, !tbaa !3
  store ptr %12, ptr %6, align 8, !tbaa !87
  %13 = load ptr, ptr %6, align 8, !tbaa !87
  %14 = call i32 @pmix_obj_update(ptr noundef %13, i32 noundef -1)
  %15 = icmp eq i32 0, %14
  br i1 %15, label %16, label %30

16:                                               ; preds = %11
  %17 = load ptr, ptr %6, align 8, !tbaa !87
  call void @pmix_obj_run_destructors(ptr noundef %17)
  %18 = load ptr, ptr %6, align 8, !tbaa !87
  %19 = getelementptr inbounds nuw %struct.pmix_object_t, ptr %18, i32 0, i32 3
  %20 = getelementptr inbounds nuw %struct.pmix_tma, ptr %19, i32 0, i32 5
  %21 = load ptr, ptr %20, align 8, !tbaa !89
  %22 = icmp ne ptr null, %21
  br i1 %22, label %23, label %27

23:                                               ; preds = %16
  %24 = load ptr, ptr %6, align 8, !tbaa !87
  %25 = getelementptr inbounds nuw %struct.pmix_object_t, ptr %24, i32 0, i32 3
  %26 = load ptr, ptr %5, align 8, !tbaa !3
  call void @pmix_tma_free(ptr noundef %25, ptr noundef %26)
  br label %29

27:                                               ; preds = %16
  %28 = load ptr, ptr %5, align 8, !tbaa !3
  call void @free(ptr noundef %28) #11
  br label %29

29:                                               ; preds = %27, %23
  store ptr null, ptr %5, align 8, !tbaa !3
  br label %30

30:                                               ; preds = %29, %11
  call void @llvm.lifetime.end.p0(i64 8, ptr %6) #11
  br label %31

31:                                               ; preds = %30
  br label %32

32:                                               ; preds = %31
  br label %33

33:                                               ; preds = %32, %2
  call void @llvm.lifetime.end.p0(i64 8, ptr %5) #11
  ret void
}